target datalayout = "e-m:e-p270:32:32-p271:32:32-p272:64:64-i64:64-i128:128-f80:128-n8:16:32:64-S128"
target triple = "x86_64-pc-linux-gnu"

%struct.malloc_params = type { i64, i64, i64, i64, i64, i32 }
%struct.malloc_state = type { i32, i32, i64, i64, ptr, ptr, ptr, i64, i64, i64, [66 x ptr], [32 x ptr], i64, i64, i64, i32, i32, %struct.malloc_segment, ptr, i64 }
%struct.malloc_segment = type { ptr, i64, ptr, i32 }
%struct.malloc_chunk = type { i64, i64, ptr, ptr }

@mparams = internal global %struct.malloc_params zeroinitializer, align 8
@_gm_ = internal global %struct.malloc_state zeroinitializer, align 8

; Function Attrs: nounwind uwtable
define internal i32 @spin_acquire_lock(ptr noundef %0) #0 {
  %2 = alloca ptr, align 8
  %3 = alloca i32, align 4
  store ptr %0, ptr %2, align 8, !tbaa !16
  call void @llvm.lifetime.start.p0(i64 4, ptr %3) #9
  store i32 0, ptr %3, align 4, !tbaa !14
  br label %4

4:                                                ; preds = %21, %1
  %5 = load ptr, ptr %2, align 8, !tbaa !16
  %6 = load volatile i32, ptr %5, align 4, !tbaa !14
  %7 = icmp ne i32 %6, 0
  br i1 %7, label %12, label %8

8:                                                ; preds = %4
  %9 = load ptr, ptr %2, align 8, !tbaa !16
  %10 = atomicrmw xchg ptr %9, i32 1 seq_cst, align 4
  %11 = icmp ne i32 %10, 0
  br label %12

12:                                               ; preds = %8, %4
  %13 = phi i1 [ true, %4 ], [ %11, %8 ]
  br i1 %13, label %14, label %22

14:                                               ; preds = %12
  %15 = load i32, ptr %3, align 4, !tbaa !14
  %16 = add nsw i32 %15, 1
  store i32 %16, ptr %3, align 4, !tbaa !14
  %17 = and i32 %16, 63
  %18 = icmp eq i32 %17, 0
  br i1 %18, label %19, label %21

19:                                               ; preds = %14
  %20 = call i32 @sched_yield() #9
  br label %21

21:                                               ; preds = %19, %14
  br label %4, !llvm.loop !34

22:                                               ; preds = %12
  call void @llvm.lifetime.end.p0(i64 4, ptr %3) #9
  ret i32 0
}

; Function Attrs: nounwind uwtable
define hidden i64 @boost_cont_allocated_memory() #0 {
  %1 = alloca i64, align 8
  %2 = alloca ptr, align 8
  %3 = alloca i64, align 8
  %4 = alloca i64, align 8
  %5 = alloca ptr, align 8
  %6 = alloca ptr, align 8
  %7 = alloca i64, align 8
  %8 = alloca i64, align 8
  call void @llvm.lifetime.start.p0(i64 8, ptr %1) #9
  store i64 0, ptr %1, align 8, !tbaa !3
  call void @llvm.lifetime.start.p0(i64 8, ptr %2) #9
  store ptr @_gm_, ptr %2, align 8, !tbaa !16
  %9 = load i64, ptr @mparams, align 8, !tbaa !7
  %10 = icmp ne i64 %9, 0
  br i1 %10, label %13, label %11

11:                                               ; preds = %0
  %12 = call i32 @init_mparams()
  br label %13

13:                                               ; preds = %11, %0
  %14 = load ptr, ptr %2, align 8, !tbaa !16
  %15 = getelementptr inbounds nuw %struct.malloc_state, ptr %14, i32 0, i32 15
  %16 = load i32, ptr %15, align 8, !tbaa !10
  %17 = and i32 %16, 2
  %18 = icmp ne i32 %17, 0
  br i1 %18, label %19, label %30

19:                                               ; preds = %13
  %20 = load ptr, ptr %2, align 8, !tbaa !16
  %21 = getelementptr inbounds nuw %struct.malloc_state, ptr %20, i32 0, i32 16
  %22 = atomicrmw xchg ptr %21, i32 1 seq_cst, align 4
  %23 = icmp ne i32 %22, 0
  br i1 %23, label %24, label %29

24:                                               ; preds = %19
  %25 = load ptr, ptr %2, align 8, !tbaa !16
  %26 = getelementptr inbounds nuw %struct.malloc_state, ptr %25, i32 0, i32 16
  %27 = call i32 @spin_acquire_lock(ptr noundef %26)
  %28 = icmp ne i32 %27, 0
  br i1 %28, label %153, label %31

29:                                               ; preds = %19
  br i1 false, label %153, label %31

30:                                               ; preds = %13
  br i1 false, label %153, label %31

31:                                               ; preds = %30, %29, %24
  %32 = load ptr, ptr %2, align 8, !tbaa !16
  %33 = getelementptr inbounds nuw %struct.malloc_state, ptr %32, i32 0, i32 6
  %34 = load ptr, ptr %33, align 8, !tbaa !27
  %35 = icmp ne ptr %34, null
  br i1 %35, label %36, label %143

36:                                               ; preds = %31
  call void @llvm.lifetime.start.p0(i64 8, ptr %3) #9
  store i64 1, ptr %3, align 8, !tbaa !3
  call void @llvm.lifetime.start.p0(i64 8, ptr %4) #9
  %37 = load ptr, ptr %2, align 8, !tbaa !16
  %38 = getelementptr inbounds nuw %struct.malloc_state, ptr %37, i32 0, i32 3
  %39 = load i64, ptr %38, align 8, !tbaa !26
  %40 = add i64 %39, 80
  store i64 %40, ptr %4, align 8, !tbaa !3
  call void @llvm.lifetime.start.p0(i64 8, ptr %5) #9
  %41 = load ptr, ptr %2, align 8, !tbaa !16
  %42 = getelementptr inbounds nuw %struct.malloc_state, ptr %41, i32 0, i32 17
  store ptr %42, ptr %5, align 8, !tbaa !16
  br label %43

43:                                               ; preds = %122, %36
  %44 = load ptr, ptr %5, align 8, !tbaa !16
  %45 = icmp ne ptr %44, null
  br i1 %45, label %46, label %126

46:                                               ; preds = %43
  call void @llvm.lifetime.start.p0(i64 8, ptr %6) #9
  %47 = load ptr, ptr %5, align 8, !tbaa !16
  %48 = getelementptr inbounds nuw %struct.malloc_segment, ptr %47, i32 0, i32 0
  %49 = load ptr, ptr %48, align 8, !tbaa !54
  %50 = load ptr, ptr %5, align 8, !tbaa !16
  %51 = getelementptr inbounds nuw %struct.malloc_segment, ptr %50, i32 0, i32 0
  %52 = load ptr, ptr %51, align 8, !tbaa !54
  %53 = getelementptr inbounds nuw i8, ptr %52, i64 16
  %54 = ptrtoint ptr %53 to i64
  %55 = and i64 %54, 15
  %56 = icmp eq i64 %55, 0
  br i1 %56, label %57, label %58

57:                                               ; preds = %46
  br label %67

58:                                               ; preds = %46
  %59 = load ptr, ptr %5, align 8, !tbaa !16
  %60 = getelementptr inbounds nuw %struct.malloc_segment, ptr %59, i32 0, i32 0
  %61 = load ptr, ptr %60, align 8, !tbaa !54
  %62 = getelementptr inbounds nuw i8, ptr %61, i64 16
  %63 = ptrtoint ptr %62 to i64
  %64 = and i64 %63, 15
  %65 = sub i64 16, %64
  %66 = and i64 %65, 15
  br label %67

67:                                               ; preds = %58, %57
  %68 = phi i64 [ 0, %57 ], [ %66, %58 ]
  %69 = getelementptr inbounds nuw i8, ptr %49, i64 %68
  store ptr %69, ptr %6, align 8, !tbaa !16
  br label %70

70:                                               ; preds = %115, %67
  %71 = load ptr, ptr %6, align 8, !tbaa !16
  %72 = load ptr, ptr %5, align 8, !tbaa !16
  %73 = getelementptr inbounds nuw %struct.malloc_segment, ptr %72, i32 0, i32 0
  %74 = load ptr, ptr %73, align 8, !tbaa !54
  %75 = icmp uge ptr %71, %74
  br i1 %75, label %76, label %97

76:                                               ; preds = %70
  %77 = load ptr, ptr %6, align 8, !tbaa !16
  %78 = load ptr, ptr %5, align 8, !tbaa !16
  %79 = getelementptr inbounds nuw %struct.malloc_segment, ptr %78, i32 0, i32 0
  %80 = load ptr, ptr %79, align 8, !tbaa !54
  %81 = load ptr, ptr %5, align 8, !tbaa !16
  %82 = getelementptr inbounds nuw %struct.malloc_segment, ptr %81, i32 0, i32 1
  %83 = load i64, ptr %82, align 8, !tbaa !55
  %84 = getelementptr inbounds nuw i8, ptr %80, i64 %83
  %85 = icmp ult ptr %77, %84
  br i1 %85, label %86, label %97

86:                                               ; preds = %76
  %87 = load ptr, ptr %6, align 8, !tbaa !16
  %88 = load ptr, ptr %2, align 8, !tbaa !16
  %89 = getelementptr inbounds nuw %struct.malloc_state, ptr %88, i32 0, i32 6
  %90 = load ptr, ptr %89, align 8, !tbaa !27
  %91 = icmp ne ptr %87, %90
  br i1 %91, label %92, label %97

92:                                               ; preds = %86
  %93 = load ptr, ptr %6, align 8, !tbaa !16
  %94 = getelementptr inbounds nuw %struct.malloc_chunk, ptr %93, i32 0, i32 1
  %95 = load i64, ptr %94, align 8, !tbaa !21
  %96 = icmp ne i64 %95, 11
  br label %97

97:                                               ; preds = %92, %86, %76, %70
  %98 = phi i1 [ false, %86 ], [ false, %76 ], [ false, %70 ], [ %96, %92 ]
  br i1 %98, label %99, label %122

99:                                               ; preds = %97
  call void @llvm.lifetime.start.p0(i64 8, ptr %7) #9
  %100 = load ptr, ptr %6, align 8, !tbaa !16
  %101 = getelementptr inbounds nuw %struct.malloc_chunk, ptr %100, i32 0, i32 1
  %102 = load i64, ptr %101, align 8, !tbaa !21
  %103 = and i64 %102, -8
  store i64 %103, ptr %7, align 8, !tbaa !3
  %104 = load ptr, ptr %6, align 8, !tbaa !16
  %105 = getelementptr inbounds nuw %struct.malloc_chunk, ptr %104, i32 0, i32 1
  %106 = load i64, ptr %105, align 8, !tbaa !21
  %107 = and i64 %106, 3
  %108 = icmp ne i64 %107, 1
  br i1 %108, label %115, label %109

109:                                              ; preds = %99
  %110 = load i64, ptr %7, align 8, !tbaa !3
  %111 = load i64, ptr %4, align 8, !tbaa !3
  %112 = add i64 %111, %110
  store i64 %112, ptr %4, align 8, !tbaa !3
  %113 = load i64, ptr %3, align 8, !tbaa !3
  %114 = add i64 %113, 1
  store i64 %114, ptr %3, align 8, !tbaa !3
  br label %115

115:                                              ; preds = %109, %99
  %116 = load ptr, ptr %6, align 8, !tbaa !16
  %117 = load ptr, ptr %6, align 8, !tbaa !16
  %118 = getelementptr inbounds nuw %struct.malloc_chunk, ptr %117, i32 0, i32 1
  %119 = load i64, ptr %118, align 8, !tbaa !21
  %120 = and i64 %119, -8
  %121 = getelementptr inbounds nuw i8, ptr %116, i64 %120
  store ptr %121, ptr %6, align 8, !tbaa !16
  call void @llvm.lifetime.end.p0(i64 8, ptr %7) #9
  br label %70, !llvm.loop !94

122:                                              ; preds = %97
  %123 = load ptr, ptr %5, align 8, !tbaa !16
  %124 = getelementptr inbounds nuw %struct.malloc_segment, ptr %123, i32 0, i32 2
  %125 = load ptr, ptr %124, align 8, !tbaa !56
  store ptr %125, ptr %5, align 8, !tbaa !16
  call void @llvm.lifetime.end.p0(i64 8, ptr %6) #9
  br label %43, !llvm.loop !95

126:                                              ; preds = %43
  call void @llvm.lifetime.start.p0(i64 8, ptr %8) #9
  %127 = load ptr, ptr %2, align 8, !tbaa !16
  %128 = getelementptr inbounds nuw %struct.malloc_state, ptr %127, i32 0, i32 12
  %129 = load i64, ptr %128, align 8, !tbaa !47
  %130 = load i64, ptr %4, align 8, !tbaa !3
  %131 = sub i64 %129, %130
  store i64 %131, ptr %8, align 8, !tbaa !3
  %132 = load i64, ptr %3, align 8, !tbaa !3
  %133 = icmp ne i64 %132, 0
  br i1 %133, label %134, label %140

134:                                              ; preds = %126
  %135 = load i64, ptr %8, align 8, !tbaa !3
  %136 = load i64, ptr %3, align 8, !tbaa !3
  %137 = sub i64 %136, 1
  %138 = mul i64 %137, 80
  %139 = sub i64 %135, %138
  store i64 %139, ptr %1, align 8, !tbaa !3
  br label %142

140:                                              ; preds = %126
  %141 = load i64, ptr %8, align 8, !tbaa !3
  store i64 %141, ptr %1, align 8, !tbaa !3
  br label %142

142:                                              ; preds = %140, %134
  call void @llvm.lifetime.end.p0(i64 8, ptr %8) #9
  call void @llvm.lifetime.end.p0(i64 8, ptr %5) #9
  call void @llvm.lifetime.end.p0(i64 8, ptr %4) #9
  call void @llvm.lifetime.end.p0(i64 8, ptr %3) #9
  br label %143

143:                                              ; preds = %142, %31
  %144 = load ptr, ptr %2, align 8, !tbaa !16
  %145 = getelementptr inbounds nuw %struct.malloc_state, ptr %144, i32 0, i32 15
  %146 = load i32, ptr %145, align 8, !tbaa !10
  %147 = and i32 %146, 2
  %148 = icmp ne i32 %147, 0
  br i1 %148, label %149, label %152

149:                                              ; preds = %143
  %150 = load ptr, ptr %2, align 8, !tbaa !16
  %151 = getelementptr inbounds nuw %struct.malloc_state, ptr %150, i32 0, i32 16
  store atomic i32 0, ptr %151 release, align 4
  br label %152

152:                                              ; preds = %149, %143
  br label %153

153:                                              ; preds = %152, %30, %29, %24
  %154 = load i64, ptr %1, align 8, !tbaa !3
  call void @llvm.lifetime.end.p0(i64 8, ptr %2) #9
  call void @llvm.lifetime.end.p0(i64 8, ptr %1) #9
  ret i64 %154
}