; Function Attrs: nounwind uwtable
define hidden i64 @boost_cont_allocated_memory() local_unnamed_addr #0 {
  %1 = load i64, ptr @mparams, align 8, !tbaa !3
  %.not = icmp eq i64 %1, 0
  br i1 %.not, label %2, label %3

2:                                                ; preds = %0
  tail call fastcc void @init_mparams()
  br label %3

3:                                                ; preds = %2, %0
  %4 = load i32, ptr getelementptr inbounds nuw (i8, ptr @_gm_, i64 880), align 8, !tbaa !9
  %5 = and i32 %4, 2
  %.not45 = icmp eq i32 %5, 0
  br i1 %.not45, label %spin_acquire_lock.exit, label %6

6:                                                ; preds = %3
  %7 = atomicrmw xchg ptr getelementptr inbounds nuw (i8, ptr @_gm_, i64 884), i32 1 seq_cst, align 4
  %.not46 = icmp eq i32 %7, 0
  br i1 %.not46, label %spin_acquire_lock.exit, label %.preheader

.preheader:                                       ; preds = %6, %.preheader.backedge
  %.0.i = phi i32 [ %11, %.preheader.backedge ], [ 0, %6 ]
  %8 = load volatile i32, ptr getelementptr inbounds nuw (i8, ptr @_gm_, i64 884), align 4, !tbaa !13
  %.not.i = icmp eq i32 %8, 0
  br i1 %.not.i, label %9, label %.critedge.i

9:                                                ; preds = %.preheader
  %10 = atomicrmw xchg ptr getelementptr inbounds nuw (i8, ptr @_gm_, i64 884), i32 1 seq_cst, align 4
  %.not2.i = icmp eq i32 %10, 0
  br i1 %.not2.i, label %spin_acquire_lock.exit, label %.critedge.i

.critedge.i:                                      ; preds = %9, %.preheader
  %11 = add nuw nsw i32 %.0.i, 1
  %12 = and i32 %11, 63
  %13 = icmp eq i32 %12, 0
  br i1 %13, label %14, label %.preheader.backedge

14:                                               ; preds = %.critedge.i
  %15 = tail call i32 @sched_yield() #17
  br label %.preheader.backedge

.preheader.backedge:                              ; preds = %14, %.critedge.i
  br label %.preheader, !llvm.loop !14

spin_acquire_lock.exit:                           ; preds = %9, %3, %6
  %16 = load ptr, ptr getelementptr inbounds nuw (i8, ptr @_gm_, i64 40), align 8
  %.not47 = icmp eq ptr %16, null
  br i1 %.not47, label %49, label %17

17:                                               ; preds = %spin_acquire_lock.exit
  %18 = load i64, ptr getelementptr inbounds nuw (i8, ptr @_gm_, i64 16), align 8, !tbaa !28
  %19 = add i64 %18, 80
  br label %.lr.ph

.lr.ph:                                           ; preds = %.critedge, %17
  %.03469 = phi i64 [ 1, %17 ], [ %.135.lcssa.ph, %.critedge ]
  %.03868 = phi ptr [ getelementptr inbounds nuw (i8, ptr @_gm_, i64 888), %17 ], [ %44, %.critedge ]
  %.03967 = phi i64 [ %19, %17 ], [ %.140.lcssa.ph, %.critedge ]
  %20 = load ptr, ptr %.03868, align 8, !tbaa !58
  %21 = getelementptr inbounds nuw i8, ptr %20, i64 16
  %22 = ptrtoint ptr %21 to i64
  %23 = and i64 %22, 15
  %24 = icmp eq i64 %23, 0
  %25 = sub i64 0, %22
  %26 = and i64 %25, 15
  %27 = select i1 %24, i64 0, i64 %26
  %28 = getelementptr inbounds nuw i8, ptr %20, i64 %27
  %29 = getelementptr inbounds nuw i8, ptr %.03868, i64 8
  %30 = load i64, ptr %29, align 8, !tbaa !59
  %31 = getelementptr inbounds nuw i8, ptr %20, i64 %30
  br label %32

32:                                               ; preds = %.lr.ph, %37
  %.13559 = phi i64 [ %.03469, %.lr.ph ], [ %.236, %37 ]
  %.03758 = phi ptr [ %28, %.lr.ph ], [ %42, %37 ]
  %.14057 = phi i64 [ %.03967, %.lr.ph ], [ %.241, %37 ]
  %33 = icmp uge ptr %.03758, %31
  %.not53 = icmp eq ptr %.03758, %16
  %or.cond = or i1 %.not53, %33
  br i1 %or.cond, label %.critedge, label %34

34:                                               ; preds = %32
  %35 = getelementptr inbounds nuw i8, ptr %.03758, i64 8
  %36 = load i64, ptr %35, align 8, !tbaa !23
  %.not54 = icmp eq i64 %36, 11
  br i1 %.not54, label %.critedge, label %37

37:                                               ; preds = %34
  %38 = and i64 %36, 3
  %.not55 = icmp eq i64 %38, 1
  %39 = and i64 %36, -8
  %40 = select i1 %.not55, i64 %39, i64 0
  %.241 = add i64 %40, %.14057
  %41 = zext i1 %.not55 to i64
  %.236 = add i64 %.13559, %41
  %42 = getelementptr inbounds nuw i8, ptr %.03758, i64 %39
  %.not52 = icmp ult ptr %42, %20
  br i1 %.not52, label %.critedge, label %32, !llvm.loop !95

.critedge:                                        ; preds = %34, %37, %32
  %.140.lcssa.ph = phi i64 [ %.14057, %34 ], [ %.241, %37 ], [ %.14057, %32 ]
  %.135.lcssa.ph = phi i64 [ %.13559, %34 ], [ %.236, %37 ], [ %.13559, %32 ]
  %43 = getelementptr inbounds nuw i8, ptr %.03868, i64 16
  %44 = load ptr, ptr %43, align 8, !tbaa !60
  %.not48 = icmp eq ptr %44, null
  br i1 %.not48, label %45, label %.lr.ph, !llvm.loop !96

45:                                               ; preds = %.critedge
  %46 = load i64, ptr getelementptr inbounds nuw (i8, ptr @_gm_, i64 856), align 8, !tbaa !49
  %.not49 = icmp eq i64 %.135.lcssa.ph, 0
  %.neg = mul i64 %.135.lcssa.ph, -80
  %.neg50 = add i64 %.neg, 80
  %47 = select i1 %.not49, i64 0, i64 %.neg50
  %48 = sub i64 %47, %.140.lcssa.ph
  %.2 = add i64 %48, %46
  br label %49

49:                                               ; preds = %45, %spin_acquire_lock.exit
  %.1 = phi i64 [ %.2, %45 ], [ 0, %spin_acquire_lock.exit ]
  %50 = load i32, ptr getelementptr inbounds nuw (i8, ptr @_gm_, i64 880), align 8, !tbaa !9
  %51 = and i32 %50, 2
  %.not51 = icmp eq i32 %51, 0
  br i1 %.not51, label %53, label %52

52:                                               ; preds = %49
  store atomic i32 0, ptr getelementptr inbounds nuw (i8, ptr @_gm_, i64 884) release, align 4
  br label %53

53:                                               ; preds = %49, %52
  ret i64 %.1
}